; Function Attrs: mustprogress uwtable
define dso_local void @_ZN4i18n12phonenumbers18PhoneNumberMatcherC2ERKNS0_15PhoneNumberUtilERKNSt7__cxx1112basic_stringIcSt11char_traitsIcESaIcEEESC_NS1_8LeniencyEi(ptr noundef nonnull align 8 dereferenceable(117) %0, ptr noundef nonnull align 8 dereferenceable(64) %1, ptr noundef nonnull align 8 dereferenceable(32) %2, ptr noundef nonnull align 8 dereferenceable(32) %3, i32 noundef %4, i32 noundef %5) unnamed_addr #4 align 2 personality ptr @__gxx_personality_v0 {
  %7 = alloca %"class.i18n::phonenumbers::UnicodeText", align 8
  %8 = tail call noundef ptr @_ZN4i18n12phonenumbers9SingletonINS0_25PhoneNumberMatcherRegExpsEE11GetInstanceEv()
  store ptr %8, ptr %0, align 8
  %9 = getelementptr inbounds i8, ptr %0, i64 8
  %10 = tail call noundef ptr @_ZN4i18n12phonenumbers9SingletonINS0_16AlternateFormatsEE11GetInstanceEv()
  store ptr %10, ptr %9, align 8
  %11 = getelementptr inbounds i8, ptr %0, i64 16
  store ptr %1, ptr %11, align 8
  %12 = getelementptr inbounds i8, ptr %0, i64 24
  tail call void @_ZNSt7__cxx1112basic_stringIcSt11char_traitsIcESaIcEEC1ERKS4_(ptr noundef nonnull align 8 dereferenceable(32) %12, ptr noundef nonnull align 8 dereferenceable(32) %2)
  %13 = getelementptr inbounds i8, ptr %0, i64 56
  invoke void @_ZNSt7__cxx1112basic_stringIcSt11char_traitsIcESaIcEEC1ERKS4_(ptr noundef nonnull align 8 dereferenceable(32) %13, ptr noundef nonnull align 8 dereferenceable(32) %3)
          to label %14 unwind label %31

14:                                               ; preds = %6
  %15 = getelementptr inbounds i8, ptr %0, i64 88
  store i32 %4, ptr %15, align 8
  %16 = getelementptr inbounds i8, ptr %0, i64 92
  store i32 %5, ptr %16, align 4
  %17 = getelementptr inbounds i8, ptr %0, i64 96
  store i32 0, ptr %17, align 8
  %18 = getelementptr inbounds i8, ptr %0, i64 104
  store ptr null, ptr %18, align 8
  %19 = getelementptr inbounds i8, ptr %0, i64 112
  store i32 0, ptr %19, align 8
  %20 = getelementptr inbounds i8, ptr %0, i64 116
  store i8 1, ptr %20, align 4
  call void @llvm.lifetime.start.p0(i64 24, ptr nonnull %7)
  invoke void @_ZN4i18n12phonenumbers11UnicodeTextC1Ev(ptr noundef nonnull align 8 dereferenceable(24) %7)
          to label %.noexc unwind label %33

.noexc:                                           ; preds = %14
  %21 = call noundef ptr @_ZNKSt7__cxx1112basic_stringIcSt11char_traitsIcESaIcEE5c_strEv(ptr noundef nonnull align 8 dereferenceable(32) %12) #19
  %22 = call noundef i64 @_ZNKSt7__cxx1112basic_stringIcSt11char_traitsIcESaIcEE4sizeEv(ptr noundef nonnull align 8 dereferenceable(32) %12) #19
  %23 = trunc i64 %22 to i32
  %24 = invoke noundef nonnull align 8 dereferenceable(24) ptr @_ZN4i18n12phonenumbers11UnicodeText11PointToUTF8EPKci(ptr noundef nonnull align 8 dereferenceable(24) %7, ptr noundef %21, i32 noundef %23)
          to label %27 unwind label %25

25:                                               ; preds = %.noexc
  %26 = landingpad { ptr, i32 }
          cleanup
  call void @_ZN4i18n12phonenumbers11UnicodeTextD1Ev(ptr noundef nonnull align 8 dereferenceable(24) %7) #19
  br label %.body

27:                                               ; preds = %.noexc
  %28 = getelementptr inbounds i8, ptr %7, i64 17
  %29 = load i8, ptr %28, align 1
  %30 = and i8 %29, 1
  call void @_ZN4i18n12phonenumbers11UnicodeTextD1Ev(ptr noundef nonnull align 8 dereferenceable(24) %7) #19
  call void @llvm.lifetime.end.p0(i64 24, ptr nonnull %7)
  store i8 %30, ptr %20, align 4
  ret void

31:                                               ; preds = %6
  %32 = landingpad { ptr, i32 }
          cleanup
  br label %35

33:                                               ; preds = %14
  %34 = landingpad { ptr, i32 }
          cleanup
  br label %.body

.body:                                            ; preds = %25, %33
  %eh.lpad-body = phi { ptr, i32 } [ %34, %33 ], [ %26, %25 ]
  call void @_ZN5boost10scoped_ptrIN4i18n12phonenumbers16PhoneNumberMatchEED2Ev(ptr noundef nonnull align 8 dereferenceable(8) %18) #19
  call void @_ZNSt7__cxx1112basic_stringIcSt11char_traitsIcESaIcEED1Ev(ptr noundef nonnull align 8 dereferenceable(32) %13) #19
  br label %35

35:                                               ; preds = %.body, %31
  %.pn = phi { ptr, i32 } [ %eh.lpad-body, %.body ], [ %32, %31 ]
  call void @_ZNSt7__cxx1112basic_stringIcSt11char_traitsIcESaIcEED1Ev(ptr noundef nonnull align 8 dereferenceable(32) %12) #19
  resume { ptr, i32 } %.pn
}